Certificate:
    Data:
        Version: 3 (0x2)
        Serial Number:
            28:cc:34:1c:90:a2:6b:d2:d3:61:7d:2f:ef:71:b6:20:34:f3:22:fc
        Signature Algorithm: sha256WithRSAEncryption
        Issuer: DC=org, DC=simple, O=Simple Inc, CN=Simple Root CA
        Validity
            Not Before: Oct 30 12:34:23 2024 GMT
            Not After : Oct 30 12:34:23 2034 GMT
        Subject: DC=org, DC=simple, O=Simple Inc, CN=Simple Signing CA
        Subject Public Key Info:
            Public Key Algorithm: rsaEncryption
                Public-Key: (2048 bit)
                Modulus:
                    00:a6:b6:e9:5c:51:c1:96:82:a2:aa:35:c1:97:17:
                    3d:04:31:bb:e3:72:05:1d:ae:78:11:9b:f3:bb:47:
                    29:c1:d6:77:5c:42:7e:bf:b3:33:ca:75:aa:be:e0:
                    f2:28:6e:26:08:6c:7c:aa:bc:ea:25:99:d1:10:99:
                    eb:2d:a3:0b:b4:be:62:46:a0:d6:7e:2d:51:58:6a:
                    3f:d9:de:8b:32:63:93:2d:73:d0:f5:40:6d:ab:d8:
                    07:b6:48:e3:e3:8d:59:d5:8c:74:57:07:3f:96:e9:
                    90:f6:52:6c:4c:91:ed:3d:c9:59:26:ed:b7:9c:99:
                    c3:08:eb:0b:1b:d9:75:31:fb:23:61:b4:80:b9:41:
                    8f:11:57:1f:f5:41:a6:f6:1c:72:94:23:10:3b:27:
                    a3:d6:4e:27:7b:f4:54:ee:db:e3:47:50:92:19:25:
                    b9:b8:7f:71:4b:fa:c3:2c:56:95:9c:8d:62:c2:68:
                    fc:bc:3a:b5:56:11:09:a5:47:ab:e3:d2:8c:f2:b8:
                    9c:96:86:18:be:72:91:05:da:51:1f:73:a3:c4:a4:
                    1d:5e:b8:ad:15:be:52:63:5c:c8:8b:ba:47:6e:7a:
                    da:5d:2b:61:3d:c2:01:7c:59:30:f6:b9:c4:50:0a:
                    f2:2d:35:72:2c:b3:31:d6:fb:98:f2:79:88:a5:fa:
                    6f:6d
                Exponent: 65537 (0x10001)
        X509v3 extensions:
            X509v3 Key Usage: critical
                Certificate Sign, CRL Sign
            X509v3 Basic Constraints: critical
                CA:TRUE, pathlen:0
            X509v3 Subject Key Identifier: 
                D1:3C:28:9A:83:BB:38:9D:1A:B8:2C:61:30:F2:2C:A7:62:94:58:3B
            X509v3 Authority Key Identifier: 
                94:D3:B4:A5:BB:AC:BC:8E:7D:41:7F:40:2A:9A:54:90:B4:F3:1E:FD
    Signature Algorithm: sha256WithRSAEncryption
    Signature Value:
        46:6f:6d:56:26:06:ea:10:8d:00:27:3b:5f:a5:6b:8c:73:18:
        cb:ae:94:5f:96:4c:67:0b:09:10:ed:62:c3:68:4e:eb:e3:c0:
        4f:0a:6a:81:c3:b2:e4:3f:f3:31:01:ce:fd:0d:e4:97:c6:8f:
        d9:d2:9d:6d:3d:3e:d0:7f:0c:24:57:5e:c9:aa:46:b8:31:5f:
        34:a5:c8:95:7f:ff:71:44:34:c3:ab:95:0b:d6:cf:51:85:68:
        d0:79:aa:46:89:26:92:e7:68:15:f5:cf:5b:c6:ec:18:9e:0b:
        05:d2:10:41:a1:a4:fd:a6:52:d8:6f:e6:4e:0b:4d:5c:b7:3e:
        3a:6a:37:92:7a:ee:38:58:51:9d:2d:a7:f3:5b:09:5b:12:d7:
        a9:c6:00:66:79:b4:d6:f4:0b:e8:62:e1:23:62:8e:c8:a5:ec:
        2e:8a:95:2b:09:63:02:95:64:69:94:00:3d:3e:51:69:84:9f:
        1e:ba:2c:03:7c:62:97:9f:ce:06:9b:33:0c:e5:47:72:ab:4d:
        19:d3:72:4b:3f:24:8f:57:91:ce:bf:78:c4:16:93:81:7c:71:
        c7:e6:0b:2e:69:7d:d9:ad:86:ec:4b:66:e6:06:82:59:b9:6f:
        e6:88:82:70:fe:16:78:36:1a:8b:0c:70:40:d3:d3:3b:82:1f:
        af:cd:46:86
-----BEGIN CERTIFICATE-----
MIIDrTCCApWgAwIBAgIUKMw0HJCia9LTYX0v73G2IDTzIvwwDQYJKoZIhvcNAQEL
BQAwWzETMBEGCgmSJomT8ixkARkWA29yZzEWMBQGCgmSJomT8ixkARkWBnNpbXBs
ZTETMBEGA1UECgwKU2ltcGxlIEluYzEXMBUGA1UEAwwOU2ltcGxlIFJvb3QgQ0Ew
HhcNMjQxMDMwMTIzNDIzWhcNMzQxMDMwMTIzNDIzWjBeMRMwEQYKCZImiZPyLGQB
GRYDb3JnMRYwFAYKCZImiZPyLGQBGRYGc2ltcGxlMRMwEQYDVQQKDApTaW1wbGUg
SW5jMRowGAYDVQQDDBFTaW1wbGUgU2lnbmluZyBDQTCCASIwDQYJKoZIhvcNAQEB
BQADggEPADCCAQoCggEBAKa26VxRwZaCoqo1wZcXPQQxu+NyBR2ueBGb87tHKcHW
d1xCfr+zM8p1qr7g8ihuJghsfKq86iWZ0RCZ6y2jC7S+Ykag1n4tUVhqP9neizJj
ky1z0PVAbavYB7ZI4+ONWdWMdFcHP5bpkPZSbEyR7T3JWSbtt5yZwwjrCxvZdTH7
I2G0gLlBjxFXH/VBpvYccpQjEDsno9ZOJ3v0VO7b40dQkhklubh/cUv6wyxWlZyN
YsJo/Lw6tVYRCaVHq+PSjPK4nJaGGL5ykQXaUR9zo8SkHV64rRW+UmNcyIu6R256
2l0rYT3CAXxZMPa5xFAK8i01ciyzMdb7mPJ5iKX6b20CAwEAAaNmMGQwDgYDVR0P
AQH/BAQDAgEGMBIGA1UdEwEB/wQIMAYBAf8CAQAwHQYDVR0OBBYEFNE8KJqDuzid
GrgsYTDyLKdilFg7MB8GA1UdIwQYMBaAFJTTtKW7rLyOfUF/QCqaVJC08x79MA0G
CSqGSIb3DQEBCwUAA4IBAQBGb21WJgbqEI0AJztfpWuMcxjLrpRflkxnCwkQ7WLD
aE7r48BPCmqBw7LkP/MxAc79DeSXxo/Z0p1tPT7QfwwkV17Jqka4MV80pciVf/9x
RDTDq5UL1s9RhWjQeapGiSaS52gV9c9bxuwYngsF0hBBoaT9plLYb+ZOC01ctz46
ajeSeu44WFGdLafzWwlbEtepxgBmebTW9AvoYuEjYo7IpewuipUrCWMClWRplAA9
PlFphJ8euiwDfGKXn84GmzMM5Udyq00Z03JLPySPV5HOv3jEFpOBfHHH5gsuaX3Z
rYbsS2bmBoJZuW/miIJw/hZ4NhqLDHBA09M7gh+vzUaG
-----END CERTIFICATE-----
